; ModuleID = '22/461.c'
source_filename = "22/461.c"
target datalayout = "e-m:e-p270:32:32-p271:32:32-p272:64:64-i64:64-f80:128-n8:16:32:64-S128"
target triple = "x86_64-pc-linux-gnu"

@.str = private unnamed_addr constant [5 x i8] c"%d%c\00", align 1
@.str.1 = private unnamed_addr constant [4 x i8] c"No\0A\00", align 1
@.str.2 = private unnamed_addr constant [4 x i8] c"%d\0A\00", align 1

; Function Attrs: noinline nounwind uwtable
define dso_local i32 @main() #0 {
  %1 = alloca i32, align 4
  %2 = alloca [300 x i32], align 16
  %3 = alloca i32, align 4
  %4 = alloca i32, align 4
  %5 = alloca i32, align 4
  %6 = alloca i32, align 4
  %7 = alloca i8, align 1
  %8 = alloca i32, align 4
  %9 = alloca i32, align 4
  %10 = alloca i32, align 4
  store i32 0, i32* %1, align 4
  store i32 0, i32* %5, align 4
  store i32 0, i32* %3, align 4
  br label %11

11:                                               ; preds = %26, %0
  %12 = load i32, i32* %3, align 4
  %13 = icmp slt i32 %12, 300
  br i1 %13, label %14, label %29

14:                                               ; preds = %11
  %15 = load i32, i32* %3, align 4
  %16 = sext i32 %15 to i64
  %17 = getelementptr inbounds [300 x i32], [300 x i32]* %2, i64 0, i64 %16
  %18 = call i32 (i8*, ...) @__isoc99_scanf(i8* getelementptr inbounds ([5 x i8], [5 x i8]* @.str, i64 0, i64 0), i32* %17, i8* %7)
  %19 = load i32, i32* %5, align 4
  %20 = add nsw i32 %19, 1
  store i32 %20, i32* %5, align 4
  %21 = load i8, i8* %7, align 1
  %22 = sext i8 %21 to i32
  %23 = icmp eq i32 %22, 10
  br i1 %23, label %24, label %25

24:                                               ; preds = %14
  br label %29

25:                                               ; preds = %14
  br label %26

26:                                               ; preds = %25
  %27 = load i32, i32* %3, align 4
  %28 = add nsw i32 %27, 1
  store i32 %28, i32* %3, align 4
  br label %11

29:                                               ; preds = %24, %11
  store i32 0, i32* %8, align 4
  store i32 0, i32* %9, align 4
  %30 = getelementptr inbounds [300 x i32], [300 x i32]* %2, i64 0, i64 0
  %31 = load i32, i32* %30, align 16
  store i32 %31, i32* %10, align 4
  %32 = load i32, i32* %5, align 4
  %33 = icmp eq i32 %32, 1
  br i1 %33, label %34, label %36

34:                                               ; preds = %29
  %35 = call i32 (i8*, ...) @printf(i8* getelementptr inbounds ([4 x i8], [4 x i8]* @.str.1, i64 0, i64 0))
  br label %114

36:                                               ; preds = %29
  store i32 0, i32* %6, align 4
  store i32 0, i32* %3, align 4
  br label %37

37:                                               ; preds = %52, %36
  %38 = load i32, i32* %3, align 4
  %39 = load i32, i32* %5, align 4
  %40 = icmp slt i32 %38, %39
  br i1 %40, label %41, label %55

41:                                               ; preds = %37
  %42 = load i32, i32* %3, align 4
  %43 = sext i32 %42 to i64
  %44 = getelementptr inbounds [300 x i32], [300 x i32]* %2, i64 0, i64 %43
  %45 = load i32, i32* %44, align 4
  %46 = load i32, i32* %10, align 4
  %47 = icmp eq i32 %45, %46
  br i1 %47, label %48, label %51

48:                                               ; preds = %41
  %49 = load i32, i32* %6, align 4
  %50 = add nsw i32 %49, 1
  store i32 %50, i32* %6, align 4
  br label %51

51:                                               ; preds = %48, %41
  br label %52

52:                                               ; preds = %51
  %53 = load i32, i32* %3, align 4
  %54 = add nsw i32 %53, 1
  store i32 %54, i32* %3, align 4
  br label %37

55:                                               ; preds = %37
  %56 = load i32, i32* %6, align 4
  %57 = load i32, i32* %5, align 4
  %58 = icmp eq i32 %56, %57
  br i1 %58, label %59, label %61

59:                                               ; preds = %55
  %60 = call i32 (i8*, ...) @printf(i8* getelementptr inbounds ([4 x i8], [4 x i8]* @.str.1, i64 0, i64 0))
  br label %113

61:                                               ; preds = %55
  store i32 0, i32* %4, align 4
  br label %62

62:                                               ; preds = %79, %61
  %63 = load i32, i32* %4, align 4
  %64 = load i32, i32* %5, align 4
  %65 = icmp slt i32 %63, %64
  br i1 %65, label %66, label %82

66:                                               ; preds = %62
  %67 = load i32, i32* %4, align 4
  %68 = sext i32 %67 to i64
  %69 = getelementptr inbounds [300 x i32], [300 x i32]* %2, i64 0, i64 %68
  %70 = load i32, i32* %69, align 4
  %71 = load i32, i32* %8, align 4
  %72 = icmp sgt i32 %70, %71
  br i1 %72, label %73, label %78

73:                                               ; preds = %66
  %74 = load i32, i32* %4, align 4
  %75 = sext i32 %74 to i64
  %76 = getelementptr inbounds [300 x i32], [300 x i32]* %2, i64 0, i64 %75
  %77 = load i32, i32* %76, align 4
  store i32 %77, i32* %8, align 4
  br label %78

78:                                               ; preds = %73, %66
  br label %79

79:                                               ; preds = %78
  %80 = load i32, i32* %4, align 4
  %81 = add nsw i32 %80, 1
  store i32 %81, i32* %4, align 4
  br label %62

82:                                               ; preds = %62
  store i32 0, i32* %3, align 4
  br label %83

83:                                               ; preds = %107, %82
  %84 = load i32, i32* %3, align 4
  %85 = load i32, i32* %5, align 4
  %86 = icmp slt i32 %84, %85
  br i1 %86, label %87, label %110

87:                                               ; preds = %83
  %88 = load i32, i32* %3, align 4
  %89 = sext i32 %88 to i64
  %90 = getelementptr inbounds [300 x i32], [300 x i32]* %2, i64 0, i64 %89
  %91 = load i32, i32* %90, align 4
  %92 = load i32, i32* %9, align 4
  %93 = icmp sgt i32 %91, %92
  br i1 %93, label %94, label %106

94:                                               ; preds = %87
  %95 = load i32, i32* %3, align 4
  %96 = sext i32 %95 to i64
  %97 = getelementptr inbounds [300 x i32], [300 x i32]* %2, i64 0, i64 %96
  %98 = load i32, i32* %97, align 4
  %99 = load i32, i32* %8, align 4
  %100 = icmp slt i32 %98, %99
  br i1 %100, label %101, label %106

101:                                              ; preds = %94
  %102 = load i32, i32* %3, align 4
  %103 = sext i32 %102 to i64
  %104 = getelementptr inbounds [300 x i32], [300 x i32]* %2, i64 0, i64 %103
  %105 = load i32, i32* %104, align 4
  store i32 %105, i32* %9, align 4
  br label %106

106:                                              ; preds = %101, %94, %87
  br label %107

107:                                              ; preds = %106
  %108 = load i32, i32* %3, align 4
  %109 = add nsw i32 %108, 1
  store i32 %109, i32* %3, align 4
  br label %83

110:                                              ; preds = %83
  %111 = load i32, i32* %9, align 4
  %112 = call i32 (i8*, ...) @printf(i8* getelementptr inbounds ([4 x i8], [4 x i8]* @.str.2, i64 0, i64 0), i32 %111)
  br label %113

113:                                              ; preds = %110, %59
  br label %114

114:                                              ; preds = %113, %34
  ret i32 0
}

declare dso_local i32 @__isoc99_scanf(i8*, ...) #1

declare dso_local i32 @printf(i8*, ...) #1


!llvm.module.flags = !{!0}
!llvm.ident = !{!1}

!0 = !{i32 1, !"wchar_size", i32 4}
!1 = !{!"clang version 10.0.0-4ubuntu1 "}
